target datalayout = "e-m:e-p270:32:32-p271:32:32-p272:64:64-i64:64-i128:128-f80:128-n8:16:32:64-S128"
target triple = "x86_64-pc-linux-gnu"

%struct.json_dumper = type { ptr, ptr, i32, i32, i32, i32, [1100 x i8] }
%struct.sharkd_session_process_dumpconf_data = type { ptr }
%struct._GArray = type { ptr, i32 }
%struct.pref_module = type { ptr, ptr, ptr, ptr, ptr, ptr, ptr, ptr, i32, i32, i8, i8, i32 }
%struct.enum_val_t = type { ptr, ptr, i32 }
%struct.epan_uat = type { ptr, i64, ptr, i8, ptr, i32, ptr, ptr, ptr, ptr, ptr, ptr, ptr, ptr, ptr, i32, ptr, ptr, ptr, i8, ptr, ptr, i8 }
%struct._uat_field_t = type { ptr, ptr, i32, %struct.anon.14, %struct.anon.15, ptr, ptr, ptr }
%struct.anon.14 = type { ptr, ptr, ptr }
%struct.anon.15 = type { ptr, ptr, ptr }

@dumper = internal global %struct.json_dumper zeroinitializer, align 8
@.str.5 = private unnamed_addr constant [3 x i8] c"%d\00", align 1
@.str.123 = private unnamed_addr constant [3 x i8] c"%u\00", align 1
@.str.186 = private unnamed_addr constant [2 x i8] c"t\00", align 1
@.str.188 = private unnamed_addr constant [6 x i8] c"%s.%s\00", align 1
@.str.189 = private unnamed_addr constant [2 x i8] c"d\00", align 1
@.str.261 = private unnamed_addr constant [2 x i8] c"s\00", align 1
@.str.286 = private unnamed_addr constant [2 x i8] c"1\00", align 1
@.str.309 = private unnamed_addr constant [2 x i8] c"r\00", align 1
@.str.422 = private unnamed_addr constant [2 x i8] c"v\00", align 1
@.str.437 = private unnamed_addr constant [2 x i8] c"e\00", align 1
@.str.451 = private unnamed_addr constant [2 x i8] c"u\00", align 1
@.str.452 = private unnamed_addr constant [3 x i8] c"ub\00", align 1
@.str.453 = private unnamed_addr constant [2 x i8] c"b\00", align 1
@.str.454 = private unnamed_addr constant [2 x i8] c"0\00", align 1

; Function Attrs: null_pointer_is_valid sspstrong uwtable
define internal void @sharkd_json_object_close() #0 {
  call void @json_dumper_end_object(ptr noundef @dumper)
  ret void
}

; Function Attrs: null_pointer_is_valid sspstrong uwtable
define internal void @sharkd_json_array_close() #0 {
  call void @json_dumper_end_array(ptr noundef @dumper)
  ret void
}

; Function Attrs: null_pointer_is_valid sspstrong uwtable
define internal void @sharkd_json_array_open(ptr noundef %0) #0 {
  %2 = alloca ptr, align 8
  store ptr %0, ptr %2, align 8
  %3 = load ptr, ptr %2, align 8
  %4 = icmp ne ptr %3, null
  br i1 %4, label %5, label %7

5:                                                ; preds = %1
  %6 = load ptr, ptr %2, align 8
  call void @json_dumper_set_member_name(ptr noundef @dumper, ptr noundef %6)
  br label %7

7:                                                ; preds = %5, %1
  call void @json_dumper_begin_array(ptr noundef @dumper)
  ret void
}

; Function Attrs: null_pointer_is_valid sspstrong uwtable
define internal void @sharkd_json_value_string(ptr noundef %0, ptr noundef %1) #0 {
  %3 = alloca ptr, align 8
  %4 = alloca ptr, align 8
  store ptr %0, ptr %3, align 8
  store ptr %1, ptr %4, align 8
  %5 = load ptr, ptr %3, align 8
  %6 = icmp ne ptr %5, null
  br i1 %6, label %7, label %9

7:                                                ; preds = %2
  %8 = load ptr, ptr %3, align 8
  call void @json_dumper_set_member_name(ptr noundef @dumper, ptr noundef %8)
  br label %9

9:                                                ; preds = %7, %2
  %10 = load ptr, ptr %4, align 8
  call void @json_dumper_value_string(ptr noundef @dumper, ptr noundef %10)
  ret void
}

; Function Attrs: null_pointer_is_valid sspstrong uwtable
define internal void @sharkd_json_object_open(ptr noundef %0) #0 {
  %2 = alloca ptr, align 8
  store ptr %0, ptr %2, align 8
  %3 = load ptr, ptr %2, align 8
  %4 = icmp ne ptr %3, null
  br i1 %4, label %5, label %7

5:                                                ; preds = %1
  %6 = load ptr, ptr %2, align 8
  call void @json_dumper_set_member_name(ptr noundef @dumper, ptr noundef %6)
  br label %7

7:                                                ; preds = %5, %1
  call void @json_dumper_begin_object(ptr noundef @dumper)
  ret void
}

; Function Attrs: null_pointer_is_valid sspstrong uwtable
define internal i32 @sharkd_session_process_dumpconf_cb(ptr noundef %0, ptr noundef %1) #0 {
  %3 = alloca ptr, align 8
  %4 = alloca ptr, align 8
  %5 = alloca ptr, align 8
  %6 = alloca ptr, align 8
  %7 = alloca [512 x i8], align 16
  %8 = alloca ptr, align 8
  %9 = alloca ptr, align 8
  %10 = alloca ptr, align 8
  %11 = alloca i32, align 4
  %12 = alloca ptr, align 8
  %13 = alloca i32, align 4
  %14 = alloca ptr, align 8
  store ptr %0, ptr %3, align 8
  store ptr %1, ptr %4, align 8
  call void @llvm.lifetime.start.p0(i64 8, ptr %5) #21
  %15 = load ptr, ptr %4, align 8
  store ptr %15, ptr %5, align 8
  call void @llvm.lifetime.start.p0(i64 8, ptr %6) #21
  %16 = load ptr, ptr %3, align 8
  %17 = call ptr @prefs_get_name(ptr noundef %16)
  store ptr %17, ptr %6, align 8
  call void @llvm.lifetime.start.p0(i64 512, ptr %7) #21
  %18 = getelementptr inbounds [512 x i8], ptr %7, i64 0, i64 0
  %19 = load ptr, ptr %5, align 8
  %20 = getelementptr inbounds nuw %struct.sharkd_session_process_dumpconf_data, ptr %19, i32 0, i32 0
  %21 = load ptr, ptr %20, align 8
  %22 = getelementptr inbounds nuw %struct.pref_module, ptr %21, i32 0, i32 0
  %23 = load ptr, ptr %22, align 8
  %24 = load ptr, ptr %6, align 8
  %25 = call i32 (ptr, i64, i32, i64, ptr, ...) @__snprintf_chk(ptr noundef %18, i64 noundef 512, i32 noundef 2, i64 noundef 512, ptr noundef @.str.188, ptr noundef %23, ptr noundef %24)
  %26 = getelementptr inbounds [512 x i8], ptr %7, i64 0, i64 0
  call void @sharkd_json_object_open(ptr noundef %26)
  %27 = load ptr, ptr %3, align 8
  %28 = call i32 @prefs_get_type(ptr noundef %27)
  switch i32 %28, label %129 [
    i32 1, label %29
    i32 2, label %39
    i32 8, label %43
    i32 128, label %43
    i32 16384, label %43
    i32 2048, label %43
    i32 32768, label %43
    i32 131072, label %43
    i32 4, label %46
    i32 16, label %73
    i32 8192, label %73
    i32 64, label %79
    i32 256, label %128
    i32 512, label %128
    i32 32, label %128
    i32 1024, label %128
  ]

29:                                               ; preds = %2
  %30 = load ptr, ptr %3, align 8
  %31 = call i32 @prefs_get_uint_value(ptr noundef %30, i32 noundef 2)
  call void (ptr, ptr, ...) @sharkd_json_value_anyf(ptr noundef @.str.451, ptr noundef @.str.123, i32 noundef %31)
  %32 = load ptr, ptr %3, align 8
  %33 = call i32 @prefs_get_uint_base(ptr noundef %32)
  %34 = icmp ne i32 %33, 10
  br i1 %34, label %35, label %38

35:                                               ; preds = %29
  %36 = load ptr, ptr %3, align 8
  %37 = call i32 @prefs_get_uint_base(ptr noundef %36)
  call void (ptr, ptr, ...) @sharkd_json_value_anyf(ptr noundef @.str.452, ptr noundef @.str.123, i32 noundef %37)
  br label %38

38:                                               ; preds = %35, %29
  br label %129

39:                                               ; preds = %2
  %40 = load ptr, ptr %3, align 8
  %41 = call zeroext i1 @prefs_get_bool_value(ptr noundef %40, i32 noundef 2)
  %42 = select i1 %41, ptr @.str.286, ptr @.str.454
  call void (ptr, ptr, ...) @sharkd_json_value_anyf(ptr noundef @.str.453, ptr noundef %42)
  br label %129

43:                                               ; preds = %2, %2, %2, %2, %2, %2
  %44 = load ptr, ptr %3, align 8
  %45 = call ptr @prefs_get_string_value(ptr noundef %44, i32 noundef 2)
  call void @sharkd_json_value_string(ptr noundef @.str.261, ptr noundef %45)
  br label %129

46:                                               ; preds = %2
  call void @llvm.lifetime.start.p0(i64 8, ptr %8) #21
  call void @sharkd_json_array_open(ptr noundef @.str.437)
  %47 = load ptr, ptr %3, align 8
  %48 = call ptr @prefs_get_enumvals(ptr noundef %47)
  store ptr %48, ptr %8, align 8
  br label %49

49:                                               ; preds = %69, %46
  %50 = load ptr, ptr %8, align 8
  %51 = getelementptr inbounds nuw %struct.enum_val_t, ptr %50, i32 0, i32 0
  %52 = load ptr, ptr %51, align 8
  %53 = icmp ne ptr %52, null
  br i1 %53, label %54, label %72

54:                                               ; preds = %49
  call void @json_dumper_begin_object(ptr noundef @dumper)
  %55 = load ptr, ptr %8, align 8
  %56 = getelementptr inbounds nuw %struct.enum_val_t, ptr %55, i32 0, i32 2
  %57 = load i32, ptr %56, align 8
  call void (ptr, ptr, ...) @sharkd_json_value_anyf(ptr noundef @.str.422, ptr noundef @.str.5, i32 noundef %57)
  %58 = load ptr, ptr %8, align 8
  %59 = getelementptr inbounds nuw %struct.enum_val_t, ptr %58, i32 0, i32 2
  %60 = load i32, ptr %59, align 8
  %61 = load ptr, ptr %3, align 8
  %62 = call i32 @prefs_get_enum_value(ptr noundef %61, i32 noundef 2)
  %63 = icmp eq i32 %60, %62
  br i1 %63, label %64, label %65

64:                                               ; preds = %54
  call void (ptr, ptr, ...) @sharkd_json_value_anyf(ptr noundef @.str.261, ptr noundef @.str.286)
  br label %65

65:                                               ; preds = %64, %54
  %66 = load ptr, ptr %8, align 8
  %67 = getelementptr inbounds nuw %struct.enum_val_t, ptr %66, i32 0, i32 1
  %68 = load ptr, ptr %67, align 8
  call void @sharkd_json_value_string(ptr noundef @.str.189, ptr noundef %68)
  call void @json_dumper_end_object(ptr noundef @dumper)
  br label %69

69:                                               ; preds = %65
  %70 = load ptr, ptr %8, align 8
  %71 = getelementptr %struct.enum_val_t, ptr %70, i32 1
  store ptr %71, ptr %8, align 8
  br label %49, !llvm.loop !78

72:                                               ; preds = %49
  call void @sharkd_json_array_close()
  call void @llvm.lifetime.end.p0(i64 8, ptr %8) #21
  br label %129

73:                                               ; preds = %2, %2
  call void @llvm.lifetime.start.p0(i64 8, ptr %9) #21
  %74 = load ptr, ptr %3, align 8
  %75 = call ptr @prefs_get_range_value_real(ptr noundef %74, i32 noundef 2)
  %76 = call ptr @range_convert_range(ptr noundef null, ptr noundef %75)
  store ptr %76, ptr %9, align 8
  %77 = load ptr, ptr %9, align 8
  call void @sharkd_json_value_string(ptr noundef @.str.309, ptr noundef %77)
  %78 = load ptr, ptr %9, align 8
  call void @wmem_free(ptr noundef null, ptr noundef %78)
  call void @llvm.lifetime.end.p0(i64 8, ptr %9) #21
  br label %129

79:                                               ; preds = %2
  call void @llvm.lifetime.start.p0(i64 8, ptr %10) #21
  %80 = load ptr, ptr %3, align 8
  %81 = call ptr @prefs_get_uat_value(ptr noundef %80)
  store ptr %81, ptr %10, align 8
  call void @llvm.lifetime.start.p0(i64 4, ptr %11) #21
  call void @sharkd_json_array_open(ptr noundef @.str.186)
  store i32 0, ptr %11, align 4
  br label %82

82:                                               ; preds = %124, %79
  %83 = load i32, ptr %11, align 4
  %84 = load ptr, ptr %10, align 8
  %85 = getelementptr inbounds nuw %struct.epan_uat, ptr %84, i32 0, i32 17
  %86 = load ptr, ptr %85, align 8
  %87 = getelementptr inbounds nuw %struct._GArray, ptr %86, i32 0, i32 1
  %88 = load i32, ptr %87, align 8
  %89 = icmp ult i32 %83, %88
  br i1 %89, label %90, label %127

90:                                               ; preds = %82
  call void @llvm.lifetime.start.p0(i64 8, ptr %12) #21
  %91 = load ptr, ptr %10, align 8
  %92 = getelementptr inbounds nuw %struct.epan_uat, ptr %91, i32 0, i32 17
  %93 = load ptr, ptr %92, align 8
  %94 = getelementptr inbounds nuw %struct._GArray, ptr %93, i32 0, i32 0
  %95 = load ptr, ptr %94, align 8
  %96 = load ptr, ptr %10, align 8
  %97 = getelementptr inbounds nuw %struct.epan_uat, ptr %96, i32 0, i32 1
  %98 = load i64, ptr %97, align 8
  %99 = load i32, ptr %11, align 4
  %100 = zext i32 %99 to i64
  %101 = mul i64 %98, %100
  %102 = getelementptr i8, ptr %95, i64 %101
  store ptr %102, ptr %12, align 8
  call void @llvm.lifetime.start.p0(i64 4, ptr %13) #21
  call void @sharkd_json_array_open(ptr noundef null)
  store i32 0, ptr %13, align 4
  br label %103

103:                                              ; preds = %120, %90
  %104 = load i32, ptr %13, align 4
  %105 = load ptr, ptr %10, align 8
  %106 = getelementptr inbounds nuw %struct.epan_uat, ptr %105, i32 0, i32 15
  %107 = load i32, ptr %106, align 8
  %108 = icmp ult i32 %104, %107
  br i1 %108, label %109, label %123

109:                                              ; preds = %103
  call void @llvm.lifetime.start.p0(i64 8, ptr %14) #21
  %110 = load ptr, ptr %12, align 8
  %111 = load ptr, ptr %10, align 8
  %112 = getelementptr inbounds nuw %struct.epan_uat, ptr %111, i32 0, i32 13
  %113 = load ptr, ptr %112, align 8
  %114 = load i32, ptr %13, align 4
  %115 = zext i32 %114 to i64
  %116 = getelementptr %struct._uat_field_t, ptr %113, i64 %115
  %117 = call ptr @uat_fld_tostr(ptr noundef %110, ptr noundef %116)
  store ptr %117, ptr %14, align 8
  %118 = load ptr, ptr %14, align 8
  call void @sharkd_json_value_string(ptr noundef null, ptr noundef %118)
  %119 = load ptr, ptr %14, align 8
  call void @g_free(ptr noundef %119)
  call void @llvm.lifetime.end.p0(i64 8, ptr %14) #21
  br label %120

120:                                              ; preds = %109
  %121 = load i32, ptr %13, align 4
  %122 = add i32 %121, 1
  store i32 %122, ptr %13, align 4
  br label %103, !llvm.loop !79

123:                                              ; preds = %103
  call void @sharkd_json_array_close()
  call void @llvm.lifetime.end.p0(i64 4, ptr %13) #21
  call void @llvm.lifetime.end.p0(i64 8, ptr %12) #21
  br label %124

124:                                              ; preds = %123
  %125 = load i32, ptr %11, align 4
  %126 = add i32 %125, 1
  store i32 %126, ptr %11, align 4
  br label %82, !llvm.loop !80

127:                                              ; preds = %82
  call void @sharkd_json_array_close()
  call void @llvm.lifetime.end.p0(i64 4, ptr %11) #21
  call void @llvm.lifetime.end.p0(i64 8, ptr %10) #21
  br label %129

128:                                              ; preds = %2, %2, %2, %2
  br label %129

129:                                              ; preds = %2, %128, %127, %73, %72, %43, %39, %38
  call void @sharkd_json_object_close()
  call void @llvm.lifetime.end.p0(i64 512, ptr %7) #21
  call void @llvm.lifetime.end.p0(i64 8, ptr %6) #21
  call void @llvm.lifetime.end.p0(i64 8, ptr %5) #21
  ret i32 0
}