; Function Attrs: null_pointer_is_valid sspstrong uwtable
define internal noundef i32 @sharkd_session_process_dumpconf_cb(ptr noundef %0, ptr noundef readonly captures(none) %1) #0 {
  %3 = alloca [512 x i8], align 16
  %4 = tail call ptr @prefs_get_name(ptr noundef %0)
  call void @llvm.lifetime.start.p0(i64 512, ptr nonnull %3) #17
  %5 = load ptr, ptr %1, align 8
  %6 = load ptr, ptr %5, align 8
  %7 = call i32 (ptr, i64, i32, i64, ptr, ...) @__snprintf_chk(ptr noundef nonnull %3, i64 noundef 512, i32 noundef 2, i64 noundef 512, ptr noundef nonnull @.str.188, ptr noundef %6, ptr noundef %4)
  call void @json_dumper_set_member_name(ptr noundef nonnull @dumper, ptr noundef nonnull %3)
  call void @json_dumper_begin_object(ptr noundef nonnull @dumper)
  %8 = call i32 @prefs_get_type(ptr noundef %0)
  switch i32 %8, label %63 [
    i32 1, label %9
    i32 2, label %14
    i32 8, label %17
    i32 128, label %17
    i32 16384, label %17
    i32 2048, label %17
    i32 32768, label %17
    i32 131072, label %17
    i32 4, label %19
    i32 16, label %33
    i32 8192, label %33
    i32 64, label %36
  ]

9:                                                ; preds = %2
  %10 = call i32 @prefs_get_uint_value(ptr noundef %0, i32 noundef 2)
  call void (ptr, ptr, ...) @sharkd_json_value_anyf(ptr noundef nonnull @.str.451, ptr noundef nonnull @.str.123, i32 noundef %10)
  %11 = call i32 @prefs_get_uint_base(ptr noundef %0)
  %.not36 = icmp eq i32 %11, 10
  br i1 %.not36, label %63, label %12

12:                                               ; preds = %9
  %13 = call i32 @prefs_get_uint_base(ptr noundef %0)
  call void (ptr, ptr, ...) @sharkd_json_value_anyf(ptr noundef nonnull @.str.452, ptr noundef nonnull @.str.123, i32 noundef %13)
  br label %63

14:                                               ; preds = %2
  %15 = call zeroext i1 @prefs_get_bool_value(ptr noundef %0, i32 noundef 2)
  %16 = select i1 %15, ptr @.str.286, ptr @.str.454
  call void (ptr, ptr, ...) @sharkd_json_value_anyf(ptr noundef nonnull @.str.453, ptr noundef nonnull %16)
  br label %63

17:                                               ; preds = %2, %2, %2, %2, %2, %2
  %18 = call ptr @prefs_get_string_value(ptr noundef %0, i32 noundef 2)
  call void @json_dumper_set_member_name(ptr noundef nonnull @dumper, ptr noundef nonnull @.str.261)
  call void @json_dumper_value_string(ptr noundef nonnull @dumper, ptr noundef %18)
  br label %63

19:                                               ; preds = %2
  call void @json_dumper_set_member_name(ptr noundef nonnull @dumper, ptr noundef nonnull @.str.437)
  call void @json_dumper_begin_array(ptr noundef nonnull @dumper)
  %20 = call ptr @prefs_get_enumvals(ptr noundef %0)
  %21 = load ptr, ptr %20, align 8
  %.not42 = icmp eq ptr %21, null
  br i1 %.not42, label %._crit_edge46, label %.lr.ph45

.lr.ph45:                                         ; preds = %19, %28
  %.043 = phi ptr [ %31, %28 ], [ %20, %19 ]
  call void @json_dumper_begin_object(ptr noundef nonnull @dumper)
  %22 = getelementptr inbounds nuw i8, ptr %.043, i64 16
  %23 = load i32, ptr %22, align 8
  call void (ptr, ptr, ...) @sharkd_json_value_anyf(ptr noundef nonnull @.str.422, ptr noundef nonnull @.str.5, i32 noundef %23)
  %24 = load i32, ptr %22, align 8
  %25 = call i32 @prefs_get_enum_value(ptr noundef %0, i32 noundef 2)
  %26 = icmp eq i32 %24, %25
  br i1 %26, label %27, label %28

27:                                               ; preds = %.lr.ph45
  call void (ptr, ptr, ...) @sharkd_json_value_anyf(ptr noundef nonnull @.str.261, ptr noundef nonnull @.str.286)
  br label %28

28:                                               ; preds = %27, %.lr.ph45
  %29 = getelementptr inbounds nuw i8, ptr %.043, i64 8
  %30 = load ptr, ptr %29, align 8
  call void @json_dumper_set_member_name(ptr noundef nonnull @dumper, ptr noundef nonnull @.str.189)
  call void @json_dumper_value_string(ptr noundef nonnull @dumper, ptr noundef %30)
  call void @json_dumper_end_object(ptr noundef nonnull @dumper)
  %31 = getelementptr i8, ptr %.043, i64 24
  %32 = load ptr, ptr %31, align 8
  %.not = icmp eq ptr %32, null
  br i1 %.not, label %._crit_edge46, label %.lr.ph45, !llvm.loop !77

._crit_edge46:                                    ; preds = %28, %19
  call void @json_dumper_end_array(ptr noundef nonnull @dumper)
  br label %63

33:                                               ; preds = %2, %2
  %34 = call ptr @prefs_get_range_value_real(ptr noundef %0, i32 noundef 2)
  %35 = call ptr @range_convert_range(ptr noundef null, ptr noundef %34)
  call void @json_dumper_set_member_name(ptr noundef nonnull @dumper, ptr noundef nonnull @.str.309)
  call void @json_dumper_value_string(ptr noundef nonnull @dumper, ptr noundef %35)
  call void @wmem_free(ptr noundef null, ptr noundef %35)
  br label %63

36:                                               ; preds = %2
  %37 = call ptr @prefs_get_uat_value(ptr noundef %0)
  call void @json_dumper_set_member_name(ptr noundef nonnull @dumper, ptr noundef nonnull @.str.186)
  call void @json_dumper_begin_array(ptr noundef nonnull @dumper)
  %38 = getelementptr inbounds nuw i8, ptr %37, i64 136
  %39 = load ptr, ptr %38, align 8
  %40 = getelementptr inbounds nuw i8, ptr %39, i64 8
  %41 = load i32, ptr %40, align 8
  %.not47 = icmp eq i32 %41, 0
  br i1 %.not47, label %._crit_edge41, label %.lr.ph40

.lr.ph40:                                         ; preds = %36
  %42 = getelementptr inbounds nuw i8, ptr %37, i64 8
  %43 = getelementptr inbounds nuw i8, ptr %37, i64 120
  %44 = getelementptr inbounds nuw i8, ptr %37, i64 104
  br label %45

45:                                               ; preds = %.lr.ph40, %._crit_edge
  %indvars.iv50 = phi i64 [ 0, %.lr.ph40 ], [ %indvars.iv.next51, %._crit_edge ]
  %46 = phi ptr [ %39, %.lr.ph40 ], [ %58, %._crit_edge ]
  %47 = load ptr, ptr %46, align 8
  %48 = load i64, ptr %42, align 8
  %49 = mul i64 %48, %indvars.iv50
  %50 = getelementptr i8, ptr %47, i64 %49
  call void @json_dumper_begin_array(ptr noundef nonnull @dumper)
  %51 = load i32, ptr %43, align 8
  %.not48 = icmp eq i32 %51, 0
  br i1 %.not48, label %._crit_edge, label %.lr.ph

.lr.ph:                                           ; preds = %45, %.lr.ph
  %indvars.iv = phi i64 [ %indvars.iv.next, %.lr.ph ], [ 0, %45 ]
  %52 = load ptr, ptr %44, align 8
  %53 = getelementptr %struct._uat_field_t, ptr %52, i64 %indvars.iv
  %54 = call ptr @uat_fld_tostr(ptr noundef %50, ptr noundef %53)
  call void @json_dumper_value_string(ptr noundef nonnull @dumper, ptr noundef %54)
  call void @g_free(ptr noundef %54)
  %indvars.iv.next = add nuw nsw i64 %indvars.iv, 1
  %55 = load i32, ptr %43, align 8
  %56 = zext i32 %55 to i64
  %57 = icmp samesign ult i64 %indvars.iv.next, %56
  br i1 %57, label %.lr.ph, label %._crit_edge, !llvm.loop !78

._crit_edge:                                      ; preds = %.lr.ph, %45
  call void @json_dumper_end_array(ptr noundef nonnull @dumper)
  %indvars.iv.next51 = add nuw nsw i64 %indvars.iv50, 1
  %58 = load ptr, ptr %38, align 8
  %59 = getelementptr inbounds nuw i8, ptr %58, i64 8
  %60 = load i32, ptr %59, align 8
  %61 = zext i32 %60 to i64
  %62 = icmp samesign ult i64 %indvars.iv.next51, %61
  br i1 %62, label %45, label %._crit_edge41, !llvm.loop !79

._crit_edge41:                                    ; preds = %._crit_edge, %36
  call void @json_dumper_end_array(ptr noundef nonnull @dumper)
  br label %63

63:                                               ; preds = %9, %12, %._crit_edge41, %33, %._crit_edge46, %17, %14, %2
  call void @json_dumper_end_object(ptr noundef nonnull @dumper)
  call void @llvm.lifetime.end.p0(i64 512, ptr nonnull %3) #17
  ret i32 0
}